; Function Attrs: mustprogress nounwind uwtable
define hidden void @_ZN14Deoptimization18cleanup_deopt_infoEP10JavaThreadP11vframeArray(ptr nocapture noundef %0, ptr noundef %1) local_unnamed_addr #0 align 2 {
  %3 = icmp eq ptr %1, null
  br i1 %3, label %4, label %7

4:                                                ; preds = %2
  %5 = getelementptr inbounds i8, ptr %0, i64 984
  %6 = load ptr, ptr %5, align 8
  br label %7

7:                                                ; preds = %4, %2
  %.0 = phi ptr [ %6, %4 ], [ %1, %2 ]
  %8 = getelementptr inbounds i8, ptr %0, i64 984
  store ptr null, ptr %8, align 8
  %9 = getelementptr inbounds i8, ptr %0, i64 992
  %10 = load ptr, ptr %9, align 8
  store ptr %.0, ptr %9, align 8
  %.not = icmp eq ptr %10, null
  br i1 %.not, label %23, label %11

11:                                               ; preds = %7
  %12 = getelementptr inbounds i8, ptr %10, i64 176
  %13 = load ptr, ptr %12, align 8
  store ptr null, ptr %12, align 8
  %14 = icmp eq ptr %13, null
  br i1 %14, label %22, label %15

15:                                               ; preds = %11
  %16 = getelementptr inbounds i8, ptr %13, i64 16
  %17 = load ptr, ptr %16, align 8
  tail call void @_Z8FreeHeapPv(ptr noundef %17) #22
  %18 = getelementptr inbounds i8, ptr %13, i64 24
  %19 = load ptr, ptr %18, align 8
  tail call void @_Z8FreeHeapPv(ptr noundef %19) #22
  %20 = getelementptr inbounds i8, ptr %13, i64 32
  %21 = load ptr, ptr %20, align 8
  tail call void @_Z8FreeHeapPv(ptr noundef %21) #22
  tail call void @_Z8FreeHeapPv(ptr noundef nonnull %13) #22
  br label %22

22:                                               ; preds = %11, %15
  tail call void @_Z8FreeHeapPv(ptr noundef nonnull %10) #22
  br label %23

23:                                               ; preds = %22, %7
  %24 = getelementptr inbounds i8, ptr %0, i64 968
  %25 = load ptr, ptr %24, align 8
  %26 = icmp eq ptr %25, null
  br i1 %26, label %48, label %27

27:                                               ; preds = %23
  %28 = load ptr, ptr %25, align 8
  %29 = getelementptr inbounds i8, ptr %25, i64 8
  %30 = load ptr, ptr %29, align 8
  %31 = load ptr, ptr %30, align 8
  %.not.i.i.i.i = icmp eq ptr %31, null
  br i1 %.not.i.i.i.i, label %36, label %32

32:                                               ; preds = %27
  %33 = getelementptr inbounds i8, ptr %25, i64 32
  %34 = load i64, ptr %33, align 8
  tail call void @_ZN5Arena17set_size_in_bytesEm(ptr noundef nonnull align 8 dereferenceable(48) %28, i64 noundef %34) #22
  %35 = load ptr, ptr %29, align 8
  tail call void @_ZN5Chunk9next_chopEPS_(ptr noundef %35) #22
  br label %36

36:                                               ; preds = %32, %27
  %37 = getelementptr inbounds i8, ptr %28, i64 32
  %38 = load ptr, ptr %37, align 8
  %39 = getelementptr inbounds i8, ptr %25, i64 16
  %40 = load ptr, ptr %39, align 8
  %.not8.i.i.i.i = icmp eq ptr %38, %40
  br i1 %.not8.i.i.i.i, label %_ZN17DeoptResourceMarkD2Ev.exit, label %41

41:                                               ; preds = %36
  %42 = load ptr, ptr %29, align 8
  %43 = getelementptr inbounds i8, ptr %28, i64 24
  store ptr %42, ptr %43, align 8
  %44 = load ptr, ptr %39, align 8
  store ptr %44, ptr %37, align 8
  %45 = getelementptr inbounds i8, ptr %25, i64 24
  %46 = load ptr, ptr %45, align 8
  %47 = getelementptr inbounds i8, ptr %28, i64 40
  store ptr %46, ptr %47, align 8
  br label %_ZN17DeoptResourceMarkD2Ev.exit

_ZN17DeoptResourceMarkD2Ev.exit:                  ; preds = %36, %41
  tail call void @_Z8FreeHeapPv(ptr noundef nonnull %25) #22
  br label %48

48:                                               ; preds = %_ZN17DeoptResourceMarkD2Ev.exit, %23
  tail call void @llvm.memset.p0.i64(ptr noundef nonnull align 8 dereferenceable(16) %24, i8 0, i64 16, i1 false)
  %49 = load i8, ptr @_ZN11JvmtiExport14_can_pop_frameE, align 1
  %50 = trunc i8 %49 to i1
  br i1 %50, label %51, label %53

51:                                               ; preds = %48
  %52 = getelementptr inbounds i8, ptr %0, i64 1324
  store i32 0, ptr %52, align 4
  br label %53

53:                                               ; preds = %51, %48
  %54 = getelementptr inbounds i8, ptr %0, i64 1132
  %55 = load i32, ptr %54, align 4
  %56 = icmp sgt i32 %55, 0
  br i1 %56, label %57, label %_ZN10JavaThread20dec_in_deopt_handlerEv.exit

57:                                               ; preds = %53
  %58 = add nsw i32 %55, -1
  store i32 %58, ptr %54, align 4
  br label %_ZN10JavaThread20dec_in_deopt_handlerEv.exit

_ZN10JavaThread20dec_in_deopt_handlerEv.exit:     ; preds = %53, %57
  ret void
}